target datalayout = "e-m:e-p270:32:32-p271:32:32-p272:64:64-i64:64-i128:128-f80:128-n8:16:32:64-S128"
target triple = "x86_64-unknown-linux-gnu"

%struct.UHCIState = type { %struct.PCIDevice, %struct.MemoryRegion, %struct.USBBus, i16, i16, i16, i16, i32, i8, i8, i64, ptr, ptr, i32, i32, i8, [2 x %struct.UHCIPort], ptr, i32, %union.anon.8, i8, ptr, i32, i32 }
%struct.PCIDevice = type { %struct.DeviceState, i8, i8, ptr, ptr, ptr, ptr, ptr, i32, %struct.PCIReqIDCache, [64 x i8], [7 x %struct.PCIIORegion], %struct.AddressSpace, %struct.MemoryRegion, %struct.MemoryRegion, ptr, ptr, [3 x ptr], i8, i8, i32, i8, i32, ptr, ptr, ptr, ptr, ptr, ptr, %struct.MemoryRegion, %struct.MemoryRegion, %struct.MemoryRegion, ptr, i8, i32, i8, %struct.PCIExpressDevice, ptr, ptr, i32, i8, %struct.MemoryRegion, i32, ptr, ptr, ptr, ptr, ptr, i32 }
%struct.DeviceState = type { %struct.Object, ptr, ptr, i8, i8, i64, ptr, i32, i8, ptr, %struct.NamedGPIOListHead, %struct.NamedClockListHead, %struct.BusStateHead, i32, i32, i32, %struct.ResettableState, ptr, %struct.MemReentrancyGuard }
%struct.Object = type { ptr, ptr, ptr, i32, ptr }
%struct.NamedGPIOListHead = type { ptr }
%struct.NamedClockListHead = type { ptr }
%struct.BusStateHead = type { ptr }
%struct.ResettableState = type { i32, i8, i8 }
%struct.MemReentrancyGuard = type { i8 }
%struct.PCIReqIDCache = type { ptr, i32 }
%struct.PCIIORegion = type { i64, i64, i8, ptr, ptr }
%struct.AddressSpace = type { %struct.rcu_head, ptr, ptr, ptr, i32, i32, ptr, %union.anon, %union.anon.0 }
%struct.rcu_head = type { ptr, ptr }
%union.anon = type { %struct.QTailQLink }
%struct.QTailQLink = type { ptr, ptr }
%union.anon.0 = type { %struct.QTailQLink }
%struct.PCIExpressDevice = type { i8, i8, i8, i16, %struct.PCIEAERLog, i16, i16, i16, %struct.PCIESriovPF, %struct.PCIESriovVF }
%struct.PCIEAERLog = type { i16, i16, ptr }
%struct.PCIESriovPF = type { i16, [7 x i8], ptr, ptr }
%struct.PCIESriovVF = type { ptr, i16 }
%struct.MemoryRegion = type { %struct.Object, i8, i8, i8, i8, i8, i8, i8, i8, i8, i8, ptr, ptr, ptr, ptr, ptr, ptr, i32, i128, i64, ptr, i64, i8, i8, i8, i8, i8, ptr, i64, i32, %union.anon.1, %union.anon.2, %union.anon.3, ptr, i32, ptr, ptr, i8 }
%union.anon.1 = type { %struct.QTailQLink }
%union.anon.2 = type { %struct.QTailQLink }
%union.anon.3 = type { %struct.QTailQLink }
%struct.USBBus = type { %struct.BusState, ptr, i32, i32, i32, %union.anon.4, %union.anon.5, %union.anon.6 }
%struct.BusState = type { %struct.Object, ptr, ptr, ptr, i32, i8, i8, i32, %union.BusChildHead, %struct.BusStateEntry, %struct.ResettableState }
%union.BusChildHead = type { %struct.QTailQLink }
%struct.BusStateEntry = type { ptr, ptr }
%union.anon.4 = type { %struct.QTailQLink }
%union.anon.5 = type { %struct.QTailQLink }
%union.anon.6 = type { %struct.QTailQLink }
%struct.UHCIPort = type { %struct.USBPort, i16 }
%struct.USBPort = type { ptr, i32, i32, [16 x i8], ptr, ptr, i32, %union.anon.7 }
%union.anon.7 = type { %struct.QTailQLink }
%union.anon.8 = type { %struct.QTailQLink }

; Function Attrs: nounwind sspstrong uwtable
define internal void @uhci_update_irq(ptr noundef %s) #0 {
entry:
  %s.addr = alloca ptr, align 8
  %level = alloca i32, align 4
  store ptr %s, ptr %s.addr, align 8
  store i32 0, ptr %level, align 4
  %0 = load ptr, ptr %s.addr, align 8
  %status2 = getelementptr inbounds %struct.UHCIState, ptr %0, i32 0, i32 9
  %1 = load i8, ptr %status2, align 1
  %conv = zext i8 %1 to i32
  %and = and i32 %conv, 1
  %tobool = icmp ne i32 %and, 0
  br i1 %tobool, label %land.lhs.true, label %lor.lhs.false

land.lhs.true:                                    ; preds = %entry
  %2 = load ptr, ptr %s.addr, align 8
  %intr = getelementptr inbounds %struct.UHCIState, ptr %2, i32 0, i32 5
  %3 = load i16, ptr %intr, align 4
  %conv1 = zext i16 %3 to i32
  %and2 = and i32 %conv1, 4
  %tobool3 = icmp ne i32 %and2, 0
  br i1 %tobool3, label %if.then, label %lor.lhs.false

lor.lhs.false:                                    ; preds = %land.lhs.true, %entry
  %4 = load ptr, ptr %s.addr, align 8
  %status24 = getelementptr inbounds %struct.UHCIState, ptr %4, i32 0, i32 9
  %5 = load i8, ptr %status24, align 1
  %conv5 = zext i8 %5 to i32
  %and6 = and i32 %conv5, 2
  %tobool7 = icmp ne i32 %and6, 0
  br i1 %tobool7, label %land.lhs.true8, label %lor.lhs.false13

land.lhs.true8:                                   ; preds = %lor.lhs.false
  %6 = load ptr, ptr %s.addr, align 8
  %intr9 = getelementptr inbounds %struct.UHCIState, ptr %6, i32 0, i32 5
  %7 = load i16, ptr %intr9, align 4
  %conv10 = zext i16 %7 to i32
  %and11 = and i32 %conv10, 8
  %tobool12 = icmp ne i32 %and11, 0
  br i1 %tobool12, label %if.then, label %lor.lhs.false13

lor.lhs.false13:                                  ; preds = %land.lhs.true8, %lor.lhs.false
  %8 = load ptr, ptr %s.addr, align 8
  %status = getelementptr inbounds %struct.UHCIState, ptr %8, i32 0, i32 4
  %9 = load i16, ptr %status, align 2
  %conv14 = zext i16 %9 to i32
  %and15 = and i32 %conv14, 2
  %tobool16 = icmp ne i32 %and15, 0
  br i1 %tobool16, label %land.lhs.true17, label %lor.lhs.false22

land.lhs.true17:                                  ; preds = %lor.lhs.false13
  %10 = load ptr, ptr %s.addr, align 8
  %intr18 = getelementptr inbounds %struct.UHCIState, ptr %10, i32 0, i32 5
  %11 = load i16, ptr %intr18, align 4
  %conv19 = zext i16 %11 to i32
  %and20 = and i32 %conv19, 1
  %tobool21 = icmp ne i32 %and20, 0
  br i1 %tobool21, label %if.then, label %lor.lhs.false22

lor.lhs.false22:                                  ; preds = %land.lhs.true17, %lor.lhs.false13
  %12 = load ptr, ptr %s.addr, align 8
  %status23 = getelementptr inbounds %struct.UHCIState, ptr %12, i32 0, i32 4
  %13 = load i16, ptr %status23, align 2
  %conv24 = zext i16 %13 to i32
  %and25 = and i32 %conv24, 4
  %tobool26 = icmp ne i32 %and25, 0
  br i1 %tobool26, label %land.lhs.true27, label %lor.lhs.false32

land.lhs.true27:                                  ; preds = %lor.lhs.false22
  %14 = load ptr, ptr %s.addr, align 8
  %intr28 = getelementptr inbounds %struct.UHCIState, ptr %14, i32 0, i32 5
  %15 = load i16, ptr %intr28, align 4
  %conv29 = zext i16 %15 to i32
  %and30 = and i32 %conv29, 2
  %tobool31 = icmp ne i32 %and30, 0
  br i1 %tobool31, label %if.then, label %lor.lhs.false32

lor.lhs.false32:                                  ; preds = %land.lhs.true27, %lor.lhs.false22
  %16 = load ptr, ptr %s.addr, align 8
  %status33 = getelementptr inbounds %struct.UHCIState, ptr %16, i32 0, i32 4
  %17 = load i16, ptr %status33, align 2
  %conv34 = zext i16 %17 to i32
  %and35 = and i32 %conv34, 8
  %tobool36 = icmp ne i32 %and35, 0
  br i1 %tobool36, label %if.then, label %lor.lhs.false37

lor.lhs.false37:                                  ; preds = %lor.lhs.false32
  %18 = load ptr, ptr %s.addr, align 8
  %status38 = getelementptr inbounds %struct.UHCIState, ptr %18, i32 0, i32 4
  %19 = load i16, ptr %status38, align 2
  %conv39 = zext i16 %19 to i32
  %and40 = and i32 %conv39, 16
  %tobool41 = icmp ne i32 %and40, 0
  br i1 %tobool41, label %if.then, label %if.end

if.then:                                          ; preds = %lor.lhs.false37, %lor.lhs.false32, %land.lhs.true27, %land.lhs.true17, %land.lhs.true8, %land.lhs.true
  store i32 1, ptr %level, align 4
  br label %if.end

if.end:                                           ; preds = %if.then, %lor.lhs.false37
  %20 = load ptr, ptr %s.addr, align 8
  %irq = getelementptr inbounds %struct.UHCIState, ptr %20, i32 0, i32 17
  %21 = load ptr, ptr %irq, align 8
  %22 = load i32, ptr %level, align 4
  call void @qemu_set_irq(ptr noundef %21, i32 noundef %22)
  ret void
}

; Function Attrs: nounwind sspstrong uwtable
define internal void @uhci_resume(ptr noundef %opaque) #0 {
entry:
  %opaque.addr = alloca ptr, align 8
  %s = alloca ptr, align 8
  store ptr %opaque, ptr %opaque.addr, align 8
  %0 = load ptr, ptr %opaque.addr, align 8
  store ptr %0, ptr %s, align 8
  %1 = load ptr, ptr %s, align 8
  %tobool = icmp ne ptr %1, null
  br i1 %tobool, label %if.end, label %if.then

if.then:                                          ; preds = %entry
  br label %if.end9

if.end:                                           ; preds = %entry
  %2 = load ptr, ptr %s, align 8
  %cmd = getelementptr inbounds %struct.UHCIState, ptr %2, i32 0, i32 3
  %3 = load i16, ptr %cmd, align 16
  %conv = zext i16 %3 to i32
  %and = and i32 %conv, 8
  %tobool1 = icmp ne i32 %and, 0
  br i1 %tobool1, label %if.then2, label %if.end9

if.then2:                                         ; preds = %if.end
  %4 = load ptr, ptr %s, align 8
  %cmd3 = getelementptr inbounds %struct.UHCIState, ptr %4, i32 0, i32 3
  %5 = load i16, ptr %cmd3, align 16
  %conv4 = zext i16 %5 to i32
  %or = or i32 %conv4, 16
  %conv5 = trunc i32 %or to i16
  store i16 %conv5, ptr %cmd3, align 16
  %6 = load ptr, ptr %s, align 8
  %status = getelementptr inbounds %struct.UHCIState, ptr %6, i32 0, i32 4
  %7 = load i16, ptr %status, align 2
  %conv6 = zext i16 %7 to i32
  %or7 = or i32 %conv6, 4
  %conv8 = trunc i32 %or7 to i16
  store i16 %conv8, ptr %status, align 2
  %8 = load ptr, ptr %s, align 8
  call void @uhci_update_irq(ptr noundef %8)
  br label %if.end9

if.end9:                                          ; preds = %if.then2, %if.end, %if.then
  ret void
}

; Function Attrs: nounwind sspstrong uwtable
define internal void @uhci_wakeup(ptr noundef %port1) #0 {
entry:
  %port1.addr = alloca ptr, align 8
  %s = alloca ptr, align 8
  %port = alloca ptr, align 8
  store ptr %port1, ptr %port1.addr, align 8
  %0 = load ptr, ptr %port1.addr, align 8
  %opaque = getelementptr inbounds %struct.USBPort, ptr %0, i32 0, i32 5
  %1 = load ptr, ptr %opaque, align 8
  store ptr %1, ptr %s, align 8
  %2 = load ptr, ptr %s, align 8
  %ports = getelementptr inbounds %struct.UHCIState, ptr %2, i32 0, i32 16
  %3 = load ptr, ptr %port1.addr, align 8
  %index = getelementptr inbounds %struct.USBPort, ptr %3, i32 0, i32 6
  %4 = load i32, ptr %index, align 8
  %idxprom = sext i32 %4 to i64
  %arrayidx = getelementptr [2 x %struct.UHCIPort], ptr %ports, i64 0, i64 %idxprom
  store ptr %arrayidx, ptr %port, align 8
  %5 = load ptr, ptr %port, align 8
  %ctrl = getelementptr inbounds %struct.UHCIPort, ptr %5, i32 0, i32 1
  %6 = load i16, ptr %ctrl, align 8
  %conv = zext i16 %6 to i32
  %and = and i32 %conv, 4096
  %tobool = icmp ne i32 %and, 0
  br i1 %tobool, label %land.lhs.true, label %if.end

land.lhs.true:                                    ; preds = %entry
  %7 = load ptr, ptr %port, align 8
  %ctrl1 = getelementptr inbounds %struct.UHCIPort, ptr %7, i32 0, i32 1
  %8 = load i16, ptr %ctrl1, align 8
  %conv2 = zext i16 %8 to i32
  %and3 = and i32 %conv2, 64
  %tobool4 = icmp ne i32 %and3, 0
  br i1 %tobool4, label %if.end, label %if.then

if.then:                                          ; preds = %land.lhs.true
  %9 = load ptr, ptr %port, align 8
  %ctrl5 = getelementptr inbounds %struct.UHCIPort, ptr %9, i32 0, i32 1
  %10 = load i16, ptr %ctrl5, align 8
  %conv6 = zext i16 %10 to i32
  %or = or i32 %conv6, 64
  %conv7 = trunc i32 %or to i16
  store i16 %conv7, ptr %ctrl5, align 8
  %11 = load ptr, ptr %s, align 8
  call void @uhci_resume(ptr noundef %11)
  br label %if.end

if.end:                                           ; preds = %if.then, %land.lhs.true, %entry
  ret void
}