; Function Attrs: nounwind sspstrong uwtable
define internal void @uhci_wakeup(ptr noundef readonly captures(none) %port1) #0 {
entry:
  %opaque = getelementptr inbounds nuw i8, ptr %port1, i64 40
  %0 = load ptr, ptr %opaque, align 8
  %index = getelementptr inbounds nuw i8, ptr %port1, i64 48
  %1 = load i32, ptr %index, align 8
  %idxprom = sext i32 %1 to i64
  %ctrl.idx = mul nsw i64 %idxprom, 80
  %2 = getelementptr i8, ptr %0, i64 3200
  %ctrl = getelementptr i8, ptr %2, i64 %ctrl.idx
  %3 = load i16, ptr %ctrl, align 8
  %4 = and i16 %3, 4160
  %or.cond = icmp eq i16 %4, 4096
  br i1 %or.cond, label %if.end.i, label %if.end

if.end.i:                                         ; preds = %entry
  %or = or disjoint i16 %3, 64
  store i16 %or, ptr %ctrl, align 8
  %cmd.i = getelementptr inbounds nuw i8, ptr %0, i64 3072
  %5 = load i16, ptr %cmd.i, align 16
  %6 = and i16 %5, 8
  %tobool1.not.i = icmp eq i16 %6, 0
  br i1 %tobool1.not.i, label %if.end, label %if.then2.i

if.then2.i:                                       ; preds = %if.end.i
  %or.i = or i16 %5, 16
  store i16 %or.i, ptr %cmd.i, align 16
  %status.i = getelementptr inbounds nuw i8, ptr %0, i64 3074
  %7 = load i16, ptr %status.i, align 2
  %8 = or i16 %7, 4
  store i16 %8, ptr %status.i, align 2
  %status2.i.i = getelementptr inbounds nuw i8, ptr %0, i64 3085
  %9 = load i8, ptr %status2.i.i, align 1
  %10 = and i8 %9, 1
  %tobool.not.i.i = icmp eq i8 %10, 0
  br i1 %tobool.not.i.i, label %lor.lhs.false.i.i, label %land.lhs.true.i.i

land.lhs.true.i.i:                                ; preds = %if.then2.i
  %intr.i.i = getelementptr inbounds nuw i8, ptr %0, i64 3076
  %11 = load i16, ptr %intr.i.i, align 4
  %12 = and i16 %11, 4
  %tobool3.not.i.i = icmp eq i16 %12, 0
  br i1 %tobool3.not.i.i, label %lor.lhs.false.i.i, label %if.then.i.i

lor.lhs.false.i.i:                                ; preds = %land.lhs.true.i.i, %if.then2.i
  %13 = and i8 %9, 2
  %tobool7.not.i.i = icmp eq i8 %13, 0
  %intr28.i.phi.trans.insert.i.phi.trans.insert = getelementptr inbounds nuw i8, ptr %0, i64 3076
  %.pre.i.pre = load i16, ptr %intr28.i.phi.trans.insert.i.phi.trans.insert, align 4
  %14 = and i16 %.pre.i.pre, 8
  %tobool12.not.i.i = icmp eq i16 %14, 0
  %or.cond6 = select i1 %tobool7.not.i.i, i1 true, i1 %tobool12.not.i.i
  br i1 %or.cond6, label %lor.lhs.false13.i.i, label %if.then.i.i

lor.lhs.false13.i.i:                              ; preds = %lor.lhs.false.i.i
  %15 = and i16 %7, 2
  %tobool16.not.i.i = icmp eq i16 %15, 0
  %16 = and i16 %.pre.i.pre, 1
  %tobool21.not.i.i = icmp eq i16 %16, 0
  %or.cond.i = select i1 %tobool16.not.i.i, i1 true, i1 %tobool21.not.i.i
  br i1 %or.cond.i, label %land.lhs.true27.i.i, label %if.then.i.i

land.lhs.true27.i.i:                              ; preds = %lor.lhs.false13.i.i
  %17 = and i16 %.pre.i.pre, 2
  %18 = and i16 %7, 24
  %19 = or disjoint i16 %17, %18
  %or.cond11.i.i = icmp eq i16 %19, 0
  br i1 %or.cond11.i.i, label %uhci_update_irq.exit.i, label %if.then.i.i

if.then.i.i:                                      ; preds = %lor.lhs.false.i.i, %land.lhs.true27.i.i, %lor.lhs.false13.i.i, %land.lhs.true.i.i
  br label %uhci_update_irq.exit.i

uhci_update_irq.exit.i:                           ; preds = %if.then.i.i, %land.lhs.true27.i.i
  %level.0.i.i = phi i32 [ 1, %if.then.i.i ], [ 0, %land.lhs.true27.i.i ]
  %irq.i.i = getelementptr inbounds nuw i8, ptr %0, i64 3288
  %20 = load ptr, ptr %irq.i.i, align 8
  tail call void @qemu_set_irq(ptr noundef %20, i32 noundef %level.0.i.i) #11
  br label %if.end

if.end:                                           ; preds = %uhci_update_irq.exit.i, %if.end.i, %entry
  ret void
}